LIBRARY dJointLibrary.dll
EXPORTS
??0Custom6DOF@@QAE@ABV0@@Z
??0Custom6DOF@@QAE@ABVdMatrix@@0PBUNewtonBody@@1@Z
??0CustomBallAndSocket@@QAE@ABV0@@Z
??0CustomBallAndSocket@@QAE@ABVdMatrix@@PBUNewtonBody@@1@Z
??0CustomCorkScrew@@QAE@ABV0@@Z
??0CustomCorkScrew@@QAE@ABVdMatrix@@PAUNewtonBody@@1@Z
??0CustomDGRayCastCar@@QAE@ABV0@@Z
??0CustomDGRayCastCar@@QAE@HABVdMatrix@@PAUNewtonBody@@@Z
??0CustomDryRollingFriction@@QAE@ABV0@@Z
??0CustomDryRollingFriction@@QAE@PAUNewtonBody@@MM@Z
??0CustomGear@@QAE@ABV0@@Z
??0CustomGear@@QAE@MABVdVector@@0PAUNewtonBody@@1@Z
??0CustomHinge@@QAE@ABV0@@Z
??0CustomHinge@@QAE@ABVdMatrix@@PBUNewtonBody@@1@Z
??0CustomKinematicController@@QAE@ABV0@@Z
??0CustomKinematicController@@QAE@PBUNewtonBody@@ABVdVector@@@Z
??0CustomLimitBallAndSocket@@QAE@ABV0@@Z
??0CustomLimitBallAndSocket@@QAE@ABVdMatrix@@PBUNewtonBody@@1@Z
??0CustomMultiBodyVehicle@@QAE@ABV0@@Z
??0CustomMultiBodyVehicle@@QAE@ABVdVector@@0PBUNewtonBody@@@Z
??0CustomPathFollow@@QAE@ABV0@@Z
??0CustomPathFollow@@QAE@ABVdMatrix@@PAUNewtonBody@@@Z
??0CustomPlayerController@@QAE@ABV0@@Z
??0CustomPlayerController@@QAE@ABVdMatrix@@PBUNewtonBody@@MM@Z
??0CustomPulley@@QAE@ABV0@@Z
??0CustomPulley@@QAE@MABVdVector@@0PAUNewtonBody@@1@Z
??0CustomRagDoll@@QAE@ABV0@@Z
??0CustomRagDoll@@QAE@XZ
??0CustomSlider@@QAE@ABV0@@Z
??0CustomSlider@@QAE@ABVdMatrix@@PBUNewtonBody@@1@Z
??0CustomSlidingContact@@QAE@ABV0@@Z
??0CustomSlidingContact@@QAE@ABVdMatrix@@PBUNewtonBody@@1@Z
??0CustomUniversal@@QAE@ABV0@@Z
??0CustomUniversal@@QAE@ABVdMatrix@@PAUNewtonBody@@1@Z
??0CustomUpVector@@QAE@ABV0@@Z
??0CustomUpVector@@QAE@ABVdVector@@PAUNewtonBody@@@Z
??0CustomUserBlank@@QAE@ABV0@@Z
??0CustomUserBlank@@QAE@IPBUNewtonBody@@0@Z
??0CustomWormGear@@QAE@ABV0@@Z
??0CustomWormGear@@QAE@MABVdVector@@0PAUNewtonBody@@1@Z
??0NewtonCustomJoint@@QAE@ABV0@@Z
??0NewtonCustomJoint@@QAE@HPBUNewtonBody@@0@Z
??0NewtonCustomJoint@@QAE@XZ
??1Custom6DOF@@UAE@XZ
??1CustomBallAndSocket@@UAE@XZ
??1CustomCorkScrew@@UAE@XZ
??1CustomDGRayCastCar@@UAE@XZ
??1CustomDryRollingFriction@@UAE@XZ
??1CustomGear@@UAE@XZ
??1CustomHinge@@UAE@XZ
??1CustomKinematicController@@UAE@XZ
??1CustomLimitBallAndSocket@@UAE@XZ
??1CustomMultiBodyVehicle@@UAE@XZ
??1CustomPathFollow@@UAE@XZ
??1CustomPlayerController@@UAE@XZ
??1CustomPulley@@UAE@XZ
??1CustomRagDoll@@UAE@XZ
??1CustomSlider@@UAE@XZ
??1CustomSlidingContact@@UAE@XZ
??1CustomUniversal@@UAE@XZ
??1CustomUpVector@@UAE@XZ
??1CustomUserBlank@@UAE@XZ
??1CustomWormGear@@UAE@XZ
??1NewtonCustomJoint@@UAE@XZ
??2NewtonCustomJoint@@SAPAXI@Z
??3NewtonCustomJoint@@SAXPAX@Z
??4Custom6DOF@@QAEAAV0@ABV0@@Z
??4CustomBallAndSocket@@QAEAAV0@ABV0@@Z
??4CustomCorkScrew@@QAEAAV0@ABV0@@Z
??4CustomDGRayCastCar@@QAEAAV0@ABV0@@Z
??4CustomDryRollingFriction@@QAEAAV0@ABV0@@Z
??4CustomGear@@QAEAAV0@ABV0@@Z
??4CustomHinge@@QAEAAV0@ABV0@@Z
??4CustomKinematicController@@QAEAAV0@ABV0@@Z
??4CustomLimitBallAndSocket@@QAEAAV0@ABV0@@Z
??4CustomMultiBodyVehicle@@QAEAAV0@ABV0@@Z
??4CustomPathFollow@@QAEAAV0@ABV0@@Z
??4CustomPlayerController@@QAEAAV0@ABV0@@Z
??4CustomPulley@@QAEAAV0@ABV0@@Z
??4CustomRagDoll@@QAEAAV0@ABV0@@Z
??4CustomSlider@@QAEAAV0@ABV0@@Z
??4CustomSlidingContact@@QAEAAV0@ABV0@@Z
??4CustomUniversal@@QAEAAV0@ABV0@@Z
??4CustomUpVector@@QAEAAV0@ABV0@@Z
??4CustomUserBlank@@QAEAAV0@ABV0@@Z
??4CustomWormGear@@QAEAAV0@ABV0@@Z
??4NewtonCustomJoint@@QAEAAV0@ABV0@@Z
??_7Custom6DOF@@6B@ DATA
??_7CustomBallAndSocket@@6B@ DATA
??_7CustomCorkScrew@@6B@ DATA
??_7CustomDGRayCastCar@@6B@ DATA
??_7CustomDryRollingFriction@@6B@ DATA
??_7CustomGear@@6B@ DATA
??_7CustomHinge@@6B@ DATA
??_7CustomKinematicController@@6B@ DATA
??_7CustomLimitBallAndSocket@@6B@ DATA
??_7CustomMultiBodyVehicle@@6B@ DATA
??_7CustomPathFollow@@6B@ DATA
??_7CustomPlayerController@@6B@ DATA
??_7CustomPulley@@6B@ DATA
??_7CustomRagDoll@@6B@ DATA
??_7CustomSlider@@6B@ DATA
??_7CustomSlidingContact@@6B@ DATA
??_7CustomUniversal@@6B@ DATA
??_7CustomUpVector@@6B@ DATA
??_7CustomUserBlank@@6B@ DATA
??_7CustomWormGear@@6B@ DATA
??_7NewtonCustomJoint@@6B@ DATA
?AddBone@CustomRagDoll@@QAEHPAUNewtonWorld@@HPAXABVdMatrix@@M2PBUNewtonCollision@@@Z
?AddSingleSuspensionTire@CustomDGRayCastCar@@QAEXPAXABVdVector@@MMMMMMMH@Z
?AddSingleSuspensionTire@CustomMultiBodyVehicle@@QAEHPAXABVdVector@@MMMMMM@Z
?AddSlipDifferencial@CustomMultiBodyVehicle@@QAEHHHM@Z
?ApplyBrake@CustomMultiBodyVehicle@@UAEXM@Z
?ApplySteering@CustomMultiBodyVehicle@@UAEXM@Z
?ApplyTireBrake@CustomMultiBodyVehicle@@QAEXHM@Z
?ApplyTireRollingDrag@CustomMultiBodyVehicle@@QAEXHM@Z
?ApplyTireSteerAngle@CustomMultiBodyVehicle@@QAEXHM@Z
?ApplyTireTorque@CustomMultiBodyVehicle@@QAEXHM@Z
?ApplyTorque@CustomMultiBodyVehicle@@UAEXM@Z
?CalculateBasisAndJointAngle@Custom6DOF@@IBE?AVdMatrix@@ABV2@0@Z
?CalculateGlobalMatrix@NewtonCustomJoint@@IBEXABVdMatrix@@0AAV2@1@Z
?CalculateHinge_Angles@Custom6DOF@@IBE?AVdMatrix@@ABV2@0HHH@Z
?CalculateLocalMatrices@CustomRagDoll@@ABEXXZ
?CalculateLocalMatrix@NewtonCustomJoint@@IBEXABVdMatrix@@AAV2@1@Z
?CalculateLongitudinalForce@CustomDGRayCastCar@@IBEMHMM@Z
?CalculateSuspensionMatrix@CustomDGRayCastCar@@QBE?AVdMatrix@@HM@Z
?CalculateTireCollision@CustomDGRayCastCar@@IBEXAAUTire@1@ABVdMatrix@@H@Z
?CalculateTireMatrix@CustomDGRayCastCar@@QBE?AVdMatrix@@H@Z
?CalculateUniversal_Angles@Custom6DOF@@IBE?AVdMatrix@@ABV2@0HHH@Z
?CalculateVelocity@CustomPlayerController@@ABE?AVdVector@@ABV2@M0MH@Z
?CalculateVisualMatrix@CustomPlayerController@@QBE?AVdMatrix@@XZ
?ConvexAllBodyCastPrefilter@CustomPlayerController@@CAIPBUNewtonBody@@PBUNewtonCollision@@PAX@Z
?ConvexCastPrefilter@CustomDGRayCastCar@@KAIPBUNewtonBody@@PBUNewtonCollision@@PAX@Z
?ConvexStaticCastPrefilter@CustomPlayerController@@CAIPBUNewtonBody@@PBUNewtonCollision@@PAX@Z
?Destructor@NewtonCustomJoint@@CAXPBUNewtonJoint@@@Z
?EnableAngularLimits@CustomCorkScrew@@QAEX_N@Z
?EnableAngularLimits@CustomSlidingContact@@QAEX_N@Z
?EnableLimit_0@CustomUniversal@@QAEX_N@Z
?EnableLimit_1@CustomUniversal@@QAEX_N@Z
?EnableLimits@CustomHinge@@QAEX_N@Z
?EnableLimits@CustomSlider@@QAEX_N@Z
?EnableLinearLimits@CustomCorkScrew@@QAEX_N@Z
?EnableLinearLimits@CustomSlidingContact@@QAEX_N@Z
?EnableMotor_0@CustomUniversal@@QAEX_N@Z
?EnableMotor_1@CustomUniversal@@QAEX_N@Z
?EvalueCurve@CustomPathFollow@@UAE?AVdMatrix@@ABVdVector@@@Z
?FindFloor@CustomPlayerController@@ABEHABVdMatrix@@ABVdVector@@V3@PAUNewtonCollision@@AAMAAV3@H@Z
?GenerateEngineTorque@CustomDGRayCastCar@@QAEMM@Z
?GenerateTiresSteerAngle@CustomDGRayCastCar@@QAEMM@Z
?GenerateTiresSteerForce@CustomDGRayCastCar@@QAEMM@Z
?GetAngularLimits@Custom6DOF@@QAEXAAVdVector@@0@Z
?GetBodiesCollisionState@NewtonCustomJoint@@QBEHXZ
?GetBody0@NewtonCustomJoint@@QBEPBUNewtonBody@@XZ
?GetBody1@NewtonCustomJoint@@QBEPBUNewtonBody@@XZ
?GetBone@CustomRagDoll@@QBEPBUNewtonBody@@H@Z
?GetBoneCount@CustomRagDoll@@QBEHXZ
?GetChassisMatrixLocal@CustomDGRayCastCar@@QBEABVdMatrix@@XZ
?GetInfo@Custom6DOF@@MBEXPAUNewtonJointRecord@@@Z
?GetInfo@CustomBallAndSocket@@MBEXPAUNewtonJointRecord@@@Z
?GetInfo@CustomCorkScrew@@MBEXPAUNewtonJointRecord@@@Z
?GetInfo@CustomDryRollingFriction@@MBEXPAUNewtonJointRecord@@@Z
?GetInfo@CustomGear@@MBEXPAUNewtonJointRecord@@@Z
?GetInfo@CustomHinge@@MBEXPAUNewtonJointRecord@@@Z
?GetInfo@CustomKinematicController@@MBEXPAUNewtonJointRecord@@@Z
?GetInfo@CustomLimitBallAndSocket@@MBEXPAUNewtonJointRecord@@@Z
?GetInfo@CustomMultiBodyVehicle@@UBEXPAUNewtonJointRecord@@@Z
?GetInfo@CustomPathFollow@@MBEXPAUNewtonJointRecord@@@Z
?GetInfo@CustomPulley@@MBEXPAUNewtonJointRecord@@@Z
?GetInfo@CustomRagDoll@@MBEXPAUNewtonJointRecord@@@Z
?GetInfo@CustomSlider@@MBEXPAUNewtonJointRecord@@@Z
?GetInfo@CustomSlidingContact@@MBEXPAUNewtonJointRecord@@@Z
?GetInfo@CustomUniversal@@MBEXPAUNewtonJointRecord@@@Z
?GetInfo@CustomUpVector@@MBEXPAUNewtonJointRecord@@@Z
?GetInfo@CustomUserBlank@@MBEXPAUNewtonJointRecord@@@Z
?GetInfo@CustomWormGear@@MBEXPAUNewtonJointRecord@@@Z
?GetInfo@NewtonCustomJoint@@CAXPBUNewtonJoint@@PAUNewtonJointRecord@@@Z
?GetInfo@NewtonCustomJoint@@UBEXPAUNewtonJointRecord@@@Z
?GetJoint@CustomRagDoll@@QBEPBVNewtonCustomJoint@@H@Z
?GetJoint@NewtonCustomJoint@@QBEPBUNewtonJoint@@XZ
?GetJointAngle@CustomHinge@@QBEMXZ
?GetJointID@NewtonCustomJoint@@QBEHXZ
?GetJointOmega@CustomHinge@@QBEMXZ
?GetLinearLimits@Custom6DOF@@QAEXAAVdVector@@0@Z
?GetMaxSlope@CustomPlayerController@@QBEMXZ
?GetParentBone@CustomRagDoll@@QBEPBUNewtonBody@@H@Z
?GetPinAxis@CustomHinge@@QBE?AVdVector@@XZ
?GetPlayerHeight@CustomPlayerController@@QBEMXZ
?GetPlayerStairHeight@CustomPlayerController@@QBEMXZ
?GetSensorShape@CustomPlayerController@@QBEPBUNewtonCollision@@XZ
?GetSetTireSteerAngle@CustomMultiBodyVehicle@@QBEMH@Z
?GetSpeed@CustomDGRayCastCar@@QBEMXZ
?GetSpeed@CustomMultiBodyVehicle@@QBEMXZ
?GetStairStepShape@CustomPlayerController@@QBEPBUNewtonCollision@@XZ
?GetTargetMatrix@CustomKinematicController@@QBE?AVdMatrix@@XZ
?GetTire@CustomDGRayCastCar@@QBEAAUTire@1@H@Z
?GetTireBody@CustomMultiBodyVehicle@@QBEPBUNewtonBody@@H@Z
?GetTireParametricPosition@CustomDGRayCastCar@@QBEMH@Z
?GetTireRollingResistance@CustomDGRayCastCar@@QBEMH@Z
?GetTiresCount@CustomDGRayCastCar@@QBEHXZ
?GetTiresCount@CustomMultiBodyVehicle@@QBEHXZ
?GetUserData@NewtonCustomJoint@@QBEPAXXZ
?GetVelocity@CustomPlayerController@@QBEXAAM00@Z
?Init@NewtonCustomJoint@@IAEXHPBUNewtonBody@@0@Z
?InitNormalizeTireLateralForce@CustomDGRayCastCar@@QAEXHQAM0@Z
?InitNormalizeTireLongitudinalForce@CustomDGRayCastCar@@QAEXHQAM0@Z
?JoinHitLimit@CustomSlider@@QBE_NXZ
?KinematicMotion@CustomPlayerController@@AAEXMH@Z
?KinematicMotion@CustomPlayerController@@CAXPBUNewtonJoint@@MH@Z
?PlayerOnFreeFall@CustomPlayerController@@AAEXMH@Z
?PlayerOnLand@CustomPlayerController@@AAEXMH@Z
?PlayerOnRamp@CustomPlayerController@@AAEXMH@Z
?PreProcessContacts@CustomPlayerController@@ABEHQAUNewtonWorldConvexCastReturnInfo@@HABVdVector@@@Z
?SetAngularLimis@CustomCorkScrew@@QAEXMM@Z
?SetAngularLimis@CustomSlidingContact@@QAEXMM@Z
?SetAngularLimits@Custom6DOF@@QAEXABVdVector@@0@Z
?SetBodiesCollisionState@NewtonCustomJoint@@QAEXH@Z
?SetBoneConeLimits@CustomRagDoll@@QAEXHM@Z
?SetBoneTwistLimits@CustomRagDoll@@QAEXHMM@Z
?SetCollisionState@CustomRagDoll@@QAEXHH@Z
?SetConeAngle@CustomLimitBallAndSocket@@QAEXM@Z
?SetJointID@NewtonCustomJoint@@QAEXH@Z
?SetLimis@CustomHinge@@QAEXMM@Z
?SetLimis@CustomSlider@@QAEXMM@Z
?SetLimis_0@CustomUniversal@@QAEXMM@Z
?SetLimis_1@CustomUniversal@@QAEXMM@Z
?SetLinearLimis@CustomCorkScrew@@QAEXMM@Z
?SetLinearLimis@CustomSlidingContact@@QAEXMM@Z
?SetLinearLimits@Custom6DOF@@QAEXABVdVector@@0@Z
?SetMaxAngularFriction@CustomKinematicController@@QAEXM@Z
?SetMaxLinearFriction@CustomKinematicController@@QAEXM@Z
?SetMaxSlope@CustomPlayerController@@QAEXM@Z
?SetPickMode@CustomKinematicController@@QAEXH@Z
?SetPinDir@CustomUpVector@@QAEXABVdVector@@@Z
?SetReverserUniversal@Custom6DOF@@QAEXH@Z
?SetTargetMatrix@CustomKinematicController@@QAEXABVdMatrix@@@Z
?SetTargetPosit@CustomKinematicController@@QAEXABVdVector@@@Z
?SetTargetRotation@CustomKinematicController@@QAEXABVdQuaternion@@@Z
?SetTireBrake@CustomDGRayCastCar@@QAEXHM@Z
?SetTireRollingResistance@CustomDGRayCastCar@@QAEXHM@Z
?SetTireSteerAngleForce@CustomDGRayCastCar@@QAEXHMM@Z
?SetTireTorque@CustomDGRayCastCar@@QAEXHM@Z
?SetTwistAngle@CustomLimitBallAndSocket@@QAEXMM@Z
?SetUserData@NewtonCustomJoint@@QAEXPAX@Z
?SetUserDestructorCallBack@NewtonCustomJoint@@QAEXP6AXPBUNewtonUserJoint@@@Z@Z
?SetUserSubmintConstraintCallBack@NewtonCustomJoint@@QAEXP6AXPBUNewtonUserJoint@@MH@Z@Z
?SetVelocity@CustomPlayerController@@QAEXMMM@Z
?SubmitConstraints@Custom6DOF@@IAEXABVdMatrix@@0M@Z
?SubmitConstraints@Custom6DOF@@MAEXMH@Z
?SubmitConstraints@CustomBallAndSocket@@MAEXMH@Z
?SubmitConstraints@CustomCorkScrew@@MAEXMH@Z
?SubmitConstraints@CustomDGRayCastCar@@MAEXMH@Z
?SubmitConstraints@CustomDryRollingFriction@@MAEXMH@Z
?SubmitConstraints@CustomGear@@MAEXMH@Z
?SubmitConstraints@CustomHinge@@MAEXMH@Z
?SubmitConstraints@CustomKinematicController@@MAEXMH@Z
?SubmitConstraints@CustomLimitBallAndSocket@@MAEXMH@Z
?SubmitConstraints@CustomMultiBodyVehicle@@UAEXMH@Z
?SubmitConstraints@CustomPathFollow@@MAEXMH@Z
?SubmitConstraints@CustomPlayerController@@MAEXMH@Z
?SubmitConstraints@CustomPulley@@MAEXMH@Z
?SubmitConstraints@CustomRagDoll@@MAEXMH@Z
?SubmitConstraints@CustomSlider@@MAEXMH@Z
?SubmitConstraints@CustomSlidingContact@@MAEXMH@Z
?SubmitConstraints@CustomUniversal@@MAEXMH@Z
?SubmitConstraints@CustomUpVector@@MAEXMH@Z
?SubmitConstraints@CustomUserBlank@@MAEXMH@Z
?SubmitConstraints@CustomWormGear@@MAEXMH@Z
?SubmitConstraints@NewtonCustomJoint@@CAXPBUNewtonJoint@@MH@Z
?TransformCallBack@CustomRagDoll@@CAXPBUNewtonBody@@PBMH@Z
BallAndSocketSetConeAngle
BallAndSocketSetTwistAngle
CreateCustomBallAndSocket
CreateCustomHinge
CreateCustomJoint6DOF
CreateCustomKinematicController
CreateCustomPlayerController
CreateCustomSlider
CustomCreateBlankJoint
CustomDestroyJoint
CustomGetBodiesCollisionState
CustomGetBody0
CustomGetBody1
CustomGetJointID
CustomGetNewtonJoint
CustomGetUserData
CustomJoint6DOF_GetAngularLimits
CustomJoint6DOF_GetLinearLimits
CustomJoint6DOF_SetAngularLimits
CustomJoint6DOF_SetLinearLimits
CustomJoint6DOF_SetReverseUniversal
CustomKinematicControllerGetTargetMatrix
CustomKinematicControllerSetMaxAngularFriction
CustomKinematicControllerSetMaxLinearFriction
CustomKinematicControllerSetPickMode
CustomKinematicControllerSetTargetMatrix
CustomKinematicControllerSetTargetPosit
CustomKinematicControllerSetTargetRotation
CustomPlayerControllerGetMaxSlope
CustomPlayerControllerGetSensorShape
CustomPlayerControllerGetVisualMaTrix
CustomPlayerControllerSetMaxSlope
CustomPlayerControllerSetVelocity
CustomSetBodiesCollisionState
CustomSetDestructorCallback
CustomSetJointID
CustomSetSubmitContraintCallback
CustomSetUserData
DGRaycastVehicleAddTire
DGRaycastVehicleCreate
DGRaycastVehicleGetTireMatrix
DGRaycastVehicleGetTiresCount
DGRaycastVehicleGetTiresUserData
DGRaycastVehicleInitNormalizeTireLateralForce
DGRaycastVehicleInitNormalizeTireLongitudinalForce
DGRaycastVehicleSetTireTransformCallback
HingeCalculateJointOmega
HingeEnableLimits
HingeGetJointAngle
HingeGetPinAxis
HingeSetLimits
SliderEnableLimits
SliderSetLimits
